target datalayout = "e-m:e-p270:32:32-p271:32:32-p272:64:64-i64:64-i128:128-f80:128-n8:16:32:64-S128"
target triple = "x86_64-pc-linux-gnu"

%union.pthread_mutex_t = type { %struct.__pthread_mutex_s }
%struct.__pthread_mutex_s = type { i32, i32, i32, i32, i32, i16, i16, %struct.__pthread_internal_list }
%struct.__pthread_internal_list = type { ptr, ptr }
%union.pthread_cond_t = type { %struct.__pthread_cond_s }
%struct.__pthread_cond_s = type { %union.__atomic_wide_counter, %union.__atomic_wide_counter, [2 x i32], [2 x i32], i32, i32, [2 x i32] }
%union.__atomic_wide_counter = type { i64 }

@.str.3 = private unnamed_addr constant [9 x i8] c"slurmd.c\00", align 1
@.str.43 = private unnamed_addr constant [29 x i8] c"%s: pthread_mutex_lock(): %m\00", align 1
@.str.44 = private unnamed_addr constant [31 x i8] c"%s: pthread_mutex_unlock(): %m\00", align 1
@active_mutex = internal global %union.pthread_mutex_t zeroinitializer, align 8
@active_threads = internal global i32 0, align 4
@active_cond = internal global %union.pthread_cond_t zeroinitializer, align 8
@__func__._decrement_thd_count = private unnamed_addr constant [21 x i8] c"_decrement_thd_count\00", align 1
@.str.95 = private unnamed_addr constant [36 x i8] c"%s:%d %s: pthread_cond_signal(): %m\00", align 1

; Function Attrs: nounwind uwtable
define internal void @_decrement_thd_count() #0 {
  %1 = alloca i32, align 4
  %2 = alloca i32, align 4
  %3 = alloca i32, align 4
  br label %4

4:                                                ; preds = %0
  call void @llvm.lifetime.start.p0(i64 4, ptr %1) #11
  %5 = call i32 @pthread_mutex_lock(ptr noundef @active_mutex) #11
  store i32 %5, ptr %1, align 4
  %6 = load i32, ptr %1, align 4
  %7 = icmp ne i32 %6, 0
  br i1 %7, label %8, label %11

8:                                                ; preds = %4
  %9 = load i32, ptr %1, align 4
  %10 = call ptr @__errno_location() #15
  store i32 %9, ptr %10, align 4
  call void (ptr, ...) @fatal_abort(ptr noundef @.str.43, ptr noundef @__func__._decrement_thd_count) #12
  unreachable

11:                                               ; preds = %4
  call void @llvm.lifetime.end.p0(i64 4, ptr %1) #11
  br label %12

12:                                               ; preds = %11
  %13 = load i32, ptr @active_threads, align 4
  %14 = icmp sgt i32 %13, 0
  br i1 %14, label %15, label %18

15:                                               ; preds = %12
  %16 = load i32, ptr @active_threads, align 4
  %17 = add nsw i32 %16, -1
  store i32 %17, ptr @active_threads, align 4
  br label %18

18:                                               ; preds = %15, %12
  br label %19

19:                                               ; preds = %18
  call void @llvm.lifetime.start.p0(i64 4, ptr %2) #11
  %20 = call i32 @pthread_cond_signal(ptr noundef @active_cond) #11
  store i32 %20, ptr %2, align 4
  %21 = load i32, ptr %2, align 4
  %22 = icmp ne i32 %21, 0
  br i1 %22, label %23, label %27

23:                                               ; preds = %19
  %24 = load i32, ptr %2, align 4
  %25 = call ptr @__errno_location() #15
  store i32 %24, ptr %25, align 4
  %26 = call i32 (ptr, ...) @error(ptr noundef @.str.95, ptr noundef @.str.3, i32 noundef 654, ptr noundef @__func__._decrement_thd_count)
  br label %27

27:                                               ; preds = %23, %19
  call void @llvm.lifetime.end.p0(i64 4, ptr %2) #11
  br label %28

28:                                               ; preds = %27
  br label %29

29:                                               ; preds = %28
  call void @llvm.lifetime.start.p0(i64 4, ptr %3) #11
  %30 = call i32 @pthread_mutex_unlock(ptr noundef @active_mutex) #11
  store i32 %30, ptr %3, align 4
  %31 = load i32, ptr %3, align 4
  %32 = icmp ne i32 %31, 0
  br i1 %32, label %33, label %36

33:                                               ; preds = %29
  %34 = load i32, ptr %3, align 4
  %35 = call ptr @__errno_location() #15
  store i32 %34, ptr %35, align 4
  call void (ptr, ...) @fatal_abort(ptr noundef @.str.44, ptr noundef @__func__._decrement_thd_count) #12
  unreachable

36:                                               ; preds = %29
  call void @llvm.lifetime.end.p0(i64 4, ptr %3) #11
  br label %37

37:                                               ; preds = %36
  ret void
}