; Function Attrs: nounwind uwtable
define internal fastcc void @_decrement_thd_count() unnamed_addr #0 {
  %1 = tail call i32 @pthread_mutex_lock(ptr noundef nonnull @active_mutex) #18
  %.not = icmp eq i32 %1, 0
  br i1 %.not, label %4, label %2

2:                                                ; preds = %0
  %3 = tail call ptr @__errno_location() #21
  store i32 %1, ptr %3, align 4
  tail call void (ptr, ...) @fatal_abort(ptr noundef nonnull @.str.43, ptr noundef nonnull @__func__._decrement_thd_count) #19
  unreachable

4:                                                ; preds = %0
  %5 = load i32, ptr @active_threads, align 4
  %6 = icmp sgt i32 %5, 0
  br i1 %6, label %7, label %9

7:                                                ; preds = %4
  %8 = add nsw i32 %5, -1
  store i32 %8, ptr @active_threads, align 4
  br label %9

9:                                                ; preds = %4, %7
  %10 = tail call i32 @pthread_cond_signal(ptr noundef nonnull @active_cond) #18
  %.not9 = icmp eq i32 %10, 0
  br i1 %.not9, label %14, label %11

11:                                               ; preds = %9
  %12 = tail call ptr @__errno_location() #21
  store i32 %10, ptr %12, align 4
  %13 = tail call i32 (ptr, ...) @error(ptr noundef nonnull @.str.95, ptr noundef nonnull @.str.3, i32 noundef 654, ptr noundef nonnull @__func__._decrement_thd_count) #18
  br label %14

14:                                               ; preds = %11, %9
  %15 = tail call i32 @pthread_mutex_unlock(ptr noundef nonnull @active_mutex) #18
  %.not10 = icmp eq i32 %15, 0
  br i1 %.not10, label %18, label %16

16:                                               ; preds = %14
  %17 = tail call ptr @__errno_location() #21
  store i32 %15, ptr %17, align 4
  tail call void (ptr, ...) @fatal_abort(ptr noundef nonnull @.str.44, ptr noundef nonnull @__func__._decrement_thd_count) #19
  unreachable

18:                                               ; preds = %14
  ret void
}